target datalayout = "e-m:e-p270:32:32-p271:32:32-p272:64:64-i64:64-i128:128-f80:128-n8:16:32:64-S128"
target triple = "x86_64-pc-linux-gnu"

%struct._object = type { %union.anon, ptr }
%union.anon = type { i64 }
%struct._locale_state = type { ptr }
%struct._typeobject = type { %struct.PyVarObject, ptr, i64, i64, ptr, i64, ptr, ptr, ptr, ptr, ptr, ptr, ptr, ptr, ptr, ptr, ptr, ptr, ptr, i64, ptr, ptr, ptr, ptr, i64, ptr, ptr, ptr, ptr, ptr, ptr, ptr, ptr, ptr, i64, ptr, ptr, ptr, ptr, ptr, ptr, ptr, ptr, ptr, ptr, ptr, i32, ptr, ptr, i8, i16 }
%struct.PyVarObject = type { %struct._object, i64 }
%struct.anon = type { i32, i32 }

@.str.10 = private unnamed_addr constant [15 x i8] c"bindtextdomain\00", align 1
@_Py_NoneStruct = external global %struct._object, align 8
@PyExc_ValueError = external global ptr, align 8
@.str.14 = private unnamed_addr constant [24 x i8] c"embedded null character\00", align 1
@.str.38 = private unnamed_addr constant [11 x i8] c"argument 1\00", align 1
@.str.39 = private unnamed_addr constant [4 x i8] c"str\00", align 1
@PyExc_OSError = external global ptr, align 8
@.str.100 = private unnamed_addr constant [34 x i8] c"domain must be a non-empty string\00", align 1

; Function Attrs: alwaysinline nounwind uwtable
define internal i32 @_Py_IsImmortal(ptr noundef %0) #6 {
  %2 = alloca ptr, align 8
  store ptr %0, ptr %2, align 8, !tbaa !4
  %3 = load ptr, ptr %2, align 8, !tbaa !4
  %4 = getelementptr inbounds nuw %struct._object, ptr %3, i32 0, i32 0
  %5 = getelementptr inbounds nuw %struct.anon, ptr %4, i32 0, i32 0
  %6 = load i32, ptr %5, align 8, !tbaa !52
  %7 = icmp slt i32 %6, 0
  %8 = zext i1 %7 to i32
  ret i32 %8
}

; Function Attrs: alwaysinline nounwind uwtable
define internal void @Py_DECREF(ptr noundef %0) #6 {
  %2 = alloca ptr, align 8
  store ptr %0, ptr %2, align 8, !tbaa !4
  %3 = load ptr, ptr %2, align 8, !tbaa !4
  %4 = call i32 @_Py_IsImmortal(ptr noundef %3)
  %5 = icmp ne i32 %4, 0
  br i1 %5, label %6, label %7

6:                                                ; preds = %1
  br label %16

7:                                                ; preds = %1
  %8 = load ptr, ptr %2, align 8, !tbaa !4
  %9 = getelementptr inbounds nuw %struct._object, ptr %8, i32 0, i32 0
  %10 = getelementptr inbounds nuw %struct.anon, ptr %9, i32 0, i32 0
  %11 = load i32, ptr %10, align 8, !tbaa !52
  %12 = add i32 %11, -1
  store i32 %12, ptr %10, align 8, !tbaa !52
  %13 = icmp eq i32 %12, 0
  br i1 %13, label %14, label %16

14:                                               ; preds = %7
  %15 = load ptr, ptr %2, align 8, !tbaa !4
  call void @_Py_Dealloc(ptr noundef %15)
  br label %16

16:                                               ; preds = %6, %14, %7
  ret void
}

; Function Attrs: inlinehint nounwind uwtable
define internal void @Py_XDECREF(ptr noundef %0) #3 {
  %2 = alloca ptr, align 8
  store ptr %0, ptr %2, align 8, !tbaa !4
  %3 = load ptr, ptr %2, align 8, !tbaa !4
  %4 = icmp ne ptr %3, null
  br i1 %4, label %5, label %7

5:                                                ; preds = %1
  %6 = load ptr, ptr %2, align 8, !tbaa !4
  call void @Py_DECREF(ptr noundef %6)
  br label %7

7:                                                ; preds = %5, %1
  ret void
}

; Function Attrs: inlinehint nounwind uwtable
define internal ptr @get_locale_state(ptr noundef %0) #3 {
  %2 = alloca ptr, align 8
  %3 = alloca ptr, align 8
  store ptr %0, ptr %2, align 8, !tbaa !4
  call void @llvm.lifetime.start.p0(i64 8, ptr %3) #9
  %4 = load ptr, ptr %2, align 8, !tbaa !4
  %5 = call ptr @PyModule_GetState(ptr noundef %4)
  store ptr %5, ptr %3, align 8, !tbaa !9
  %6 = load ptr, ptr %3, align 8, !tbaa !9
  call void @llvm.lifetime.end.p0(i64 8, ptr %3) #9
  ret ptr %6
}

; Function Attrs: nounwind uwtable
define internal ptr @_locale_bindtextdomain_impl(ptr noundef %0, ptr noundef %1, ptr noundef %2) #0 {
  %4 = alloca ptr, align 8
  %5 = alloca ptr, align 8
  %6 = alloca ptr, align 8
  %7 = alloca ptr, align 8
  %8 = alloca ptr, align 8
  %9 = alloca ptr, align 8
  %10 = alloca ptr, align 8
  %11 = alloca ptr, align 8
  %12 = alloca i32, align 4
  store ptr %0, ptr %5, align 8, !tbaa !4
  store ptr %1, ptr %6, align 8, !tbaa !20
  store ptr %2, ptr %7, align 8, !tbaa !4
  call void @llvm.lifetime.start.p0(i64 8, ptr %8) #9
  call void @llvm.lifetime.start.p0(i64 8, ptr %9) #9
  call void @llvm.lifetime.start.p0(i64 8, ptr %10) #9
  store ptr null, ptr %10, align 8, !tbaa !4
  call void @llvm.lifetime.start.p0(i64 8, ptr %11) #9
  %13 = load ptr, ptr %6, align 8, !tbaa !20
  %14 = call i64 @strlen(ptr noundef %13) #10
  %15 = icmp ne i64 %14, 0
  br i1 %15, label %21, label %16

16:                                               ; preds = %3
  %17 = load ptr, ptr %5, align 8, !tbaa !4
  %18 = call ptr @get_locale_state(ptr noundef %17)
  %19 = getelementptr inbounds nuw %struct._locale_state, ptr %18, i32 0, i32 0
  %20 = load ptr, ptr %19, align 8, !tbaa !12
  call void @PyErr_SetString(ptr noundef %20, ptr noundef @.str.100)
  store ptr null, ptr %4, align 8
  store i32 1, ptr %12, align 4
  br label %48

21:                                               ; preds = %3
  %22 = load ptr, ptr %7, align 8, !tbaa !4
  %23 = icmp ne ptr %22, @_Py_NoneStruct
  br i1 %23, label %24, label %32

24:                                               ; preds = %21
  %25 = load ptr, ptr %7, align 8, !tbaa !4
  %26 = call i32 @PyUnicode_FSConverter(ptr noundef %25, ptr noundef %10)
  %27 = icmp ne i32 %26, 0
  br i1 %27, label %29, label %28

28:                                               ; preds = %24
  store ptr null, ptr %4, align 8
  store i32 1, ptr %12, align 4
  br label %48

29:                                               ; preds = %24
  %30 = load ptr, ptr %10, align 8, !tbaa !4
  %31 = call ptr @PyBytes_AsString(ptr noundef %30)
  store ptr %31, ptr %8, align 8, !tbaa !20
  br label %33

32:                                               ; preds = %21
  store ptr null, ptr %10, align 8, !tbaa !4
  store ptr null, ptr %8, align 8, !tbaa !20
  br label %33

33:                                               ; preds = %32, %29
  %34 = load ptr, ptr %6, align 8, !tbaa !20
  %35 = load ptr, ptr %8, align 8, !tbaa !20
  %36 = call ptr @bindtextdomain(ptr noundef %34, ptr noundef %35) #9
  store ptr %36, ptr %9, align 8, !tbaa !20
  %37 = load ptr, ptr %9, align 8, !tbaa !20
  %38 = icmp eq ptr %37, null
  br i1 %38, label %39, label %43

39:                                               ; preds = %33
  %40 = load ptr, ptr @PyExc_OSError, align 8, !tbaa !4
  %41 = call ptr @PyErr_SetFromErrno(ptr noundef %40)
  %42 = load ptr, ptr %10, align 8, !tbaa !4
  call void @Py_XDECREF(ptr noundef %42)
  store ptr null, ptr %4, align 8
  store i32 1, ptr %12, align 4
  br label %48

43:                                               ; preds = %33
  %44 = load ptr, ptr %9, align 8, !tbaa !20
  %45 = call ptr @PyUnicode_DecodeLocale(ptr noundef %44, ptr noundef null)
  store ptr %45, ptr %11, align 8, !tbaa !4
  %46 = load ptr, ptr %10, align 8, !tbaa !4
  call void @Py_XDECREF(ptr noundef %46)
  %47 = load ptr, ptr %11, align 8, !tbaa !4
  store ptr %47, ptr %4, align 8
  store i32 1, ptr %12, align 4
  br label %48

48:                                               ; preds = %43, %39, %28, %16
  call void @llvm.lifetime.end.p0(i64 8, ptr %11) #9
  call void @llvm.lifetime.end.p0(i64 8, ptr %10) #9
  call void @llvm.lifetime.end.p0(i64 8, ptr %9) #9
  call void @llvm.lifetime.end.p0(i64 8, ptr %8) #9
  %49 = load ptr, ptr %4, align 8
  ret ptr %49
}

; Function Attrs: inlinehint nounwind uwtable
define internal i32 @PyType_HasFeature(ptr noundef %0, i64 noundef %1) #3 {
  %3 = alloca ptr, align 8
  %4 = alloca i64, align 8
  %5 = alloca i64, align 8
  store ptr %0, ptr %3, align 8, !tbaa !22
  store i64 %1, ptr %4, align 8, !tbaa !18
  call void @llvm.lifetime.start.p0(i64 8, ptr %5) #9
  %6 = load ptr, ptr %3, align 8, !tbaa !22
  %7 = getelementptr inbounds nuw %struct._typeobject, ptr %6, i32 0, i32 19
  %8 = load i64, ptr %7, align 8, !tbaa !24
  store i64 %8, ptr %5, align 8, !tbaa !18
  %9 = load i64, ptr %5, align 8, !tbaa !18
  %10 = load i64, ptr %4, align 8, !tbaa !18
  %11 = and i64 %9, %10
  %12 = icmp ne i64 %11, 0
  %13 = zext i1 %12 to i32
  call void @llvm.lifetime.end.p0(i64 8, ptr %5) #9
  ret i32 %13
}

; Function Attrs: inlinehint nounwind uwtable
define internal ptr @_Py_TYPE(ptr noundef %0) #3 {
  %2 = alloca ptr, align 8
  store ptr %0, ptr %2, align 8, !tbaa !4
  %3 = load ptr, ptr %2, align 8, !tbaa !4
  %4 = getelementptr inbounds nuw %struct._object, ptr %3, i32 0, i32 1
  %5 = load ptr, ptr %4, align 8, !tbaa !32
  ret ptr %5
}

; Function Attrs: nounwind uwtable
define internal ptr @_locale_bindtextdomain(ptr noundef %0, ptr noundef %1, i64 noundef %2) #0 {
  %4 = alloca ptr, align 8
  %5 = alloca ptr, align 8
  %6 = alloca i64, align 8
  %7 = alloca ptr, align 8
  %8 = alloca ptr, align 8
  %9 = alloca ptr, align 8
  %10 = alloca i64, align 8
  store ptr %0, ptr %4, align 8, !tbaa !4
  store ptr %1, ptr %5, align 8, !tbaa !16
  store i64 %2, ptr %6, align 8, !tbaa !18
  call void @llvm.lifetime.start.p0(i64 8, ptr %7) #9
  store ptr null, ptr %7, align 8, !tbaa !4
  call void @llvm.lifetime.start.p0(i64 8, ptr %8) #9
  call void @llvm.lifetime.start.p0(i64 8, ptr %9) #9
  %11 = load i64, ptr %6, align 8, !tbaa !18
  %12 = icmp sle i64 2, %11
  br i1 %12, label %13, label %16

13:                                               ; preds = %3
  %14 = load i64, ptr %6, align 8, !tbaa !18
  %15 = icmp sle i64 %14, 2
  br i1 %15, label %21, label %16

16:                                               ; preds = %13, %3
  %17 = load i64, ptr %6, align 8, !tbaa !18
  %18 = call i32 @_PyArg_CheckPositional(ptr noundef @.str.10, i64 noundef %17, i64 noundef 2, i64 noundef 2)
  %19 = icmp ne i32 %18, 0
  br i1 %19, label %21, label %20

20:                                               ; preds = %16
  br label %55

21:                                               ; preds = %16, %13
  %22 = load ptr, ptr %5, align 8, !tbaa !16
  %23 = getelementptr ptr, ptr %22, i64 0
  %24 = load ptr, ptr %23, align 8, !tbaa !4
  %25 = call ptr @_Py_TYPE(ptr noundef %24)
  %26 = call i32 @PyType_HasFeature(ptr noundef %25, i64 noundef 268435456)
  %27 = icmp ne i32 %26, 0
  br i1 %27, label %32, label %28

28:                                               ; preds = %21
  %29 = load ptr, ptr %5, align 8, !tbaa !16
  %30 = getelementptr ptr, ptr %29, i64 0
  %31 = load ptr, ptr %30, align 8, !tbaa !4
  call void @_PyArg_BadArgument(ptr noundef @.str.10, ptr noundef @.str.38, ptr noundef @.str.39, ptr noundef %31)
  br label %55

32:                                               ; preds = %21
  %33 = load ptr, ptr %5, align 8, !tbaa !16
  %34 = getelementptr ptr, ptr %33, i64 0
  %35 = load ptr, ptr %34, align 8, !tbaa !4
  %36 = call ptr @PyUnicode_AsUTF8AndSize(ptr noundef %35, ptr noundef %10)
  store ptr %36, ptr %8, align 8, !tbaa !20
  %37 = load ptr, ptr %8, align 8, !tbaa !20
  %38 = icmp eq ptr %37, null
  br i1 %38, label %39, label %40

39:                                               ; preds = %32
  br label %55

40:                                               ; preds = %32
  %41 = load ptr, ptr %8, align 8, !tbaa !20
  %42 = call i64 @strlen(ptr noundef %41) #10
  %43 = load i64, ptr %10, align 8, !tbaa !18
  %44 = icmp ne i64 %42, %43
  br i1 %44, label %45, label %47

45:                                               ; preds = %40
  %46 = load ptr, ptr @PyExc_ValueError, align 8, !tbaa !4
  call void @PyErr_SetString(ptr noundef %46, ptr noundef @.str.14)
  br label %55

47:                                               ; preds = %40
  %48 = load ptr, ptr %5, align 8, !tbaa !16
  %49 = getelementptr ptr, ptr %48, i64 1
  %50 = load ptr, ptr %49, align 8, !tbaa !4
  store ptr %50, ptr %9, align 8, !tbaa !4
  %51 = load ptr, ptr %4, align 8, !tbaa !4
  %52 = load ptr, ptr %8, align 8, !tbaa !20
  %53 = load ptr, ptr %9, align 8, !tbaa !4
  %54 = call ptr @_locale_bindtextdomain_impl(ptr noundef %51, ptr noundef %52, ptr noundef %53)
  store ptr %54, ptr %7, align 8, !tbaa !4
  br label %55

55:                                               ; preds = %47, %45, %39, %28, %20
  %56 = load ptr, ptr %7, align 8, !tbaa !4
  call void @llvm.lifetime.end.p0(i64 8, ptr %9) #9
  call void @llvm.lifetime.end.p0(i64 8, ptr %8) #9
  call void @llvm.lifetime.end.p0(i64 8, ptr %7) #9
  ret ptr %56
}