; Function Attrs: nounwind uwtable
define internal ptr @_locale_bindtextdomain(ptr noundef %0, ptr noundef readonly captures(none) %1, i64 noundef %2) #0 {
  %4 = alloca ptr, align 8
  %5 = alloca i64, align 8
  %or.cond = icmp eq i64 %2, 2
  br i1 %or.cond, label %8, label %6

6:                                                ; preds = %3
  %7 = tail call i32 @_PyArg_CheckPositional(ptr noundef nonnull @.str.10, i64 noundef %2, i64 noundef 2, i64 noundef 2) #8
  %.not = icmp eq i32 %7, 0
  br i1 %.not, label %56, label %8

8:                                                ; preds = %3, %6
  %9 = load ptr, ptr %1, align 8, !tbaa !10
  %10 = getelementptr i8, ptr %9, i64 8
  %.val = load ptr, ptr %10, align 8, !tbaa !12
  %11 = getelementptr i8, ptr %.val, i64 168
  %.val16 = load i64, ptr %11, align 8, !tbaa !15
  %12 = and i64 %.val16, 268435456
  %.not14 = icmp eq i64 %12, 0
  br i1 %.not14, label %13, label %14

13:                                               ; preds = %8
  tail call void @_PyArg_BadArgument(ptr noundef nonnull @.str.10, ptr noundef nonnull @.str.38, ptr noundef nonnull @.str.39, ptr noundef nonnull %9) #8
  br label %56

14:                                               ; preds = %8
  %15 = call ptr @PyUnicode_AsUTF8AndSize(ptr noundef nonnull %9, ptr noundef nonnull %5) #8
  %16 = icmp eq ptr %15, null
  br i1 %16, label %56, label %17

17:                                               ; preds = %14
  %18 = call i64 @strlen(ptr noundef nonnull dereferenceable(1) %15) #9
  %19 = load i64, ptr %5, align 8, !tbaa !25
  %.not15 = icmp eq i64 %18, %19
  br i1 %.not15, label %22, label %20

20:                                               ; preds = %17
  %21 = load ptr, ptr @PyExc_ValueError, align 8, !tbaa !10
  call void @PyErr_SetString(ptr noundef %21, ptr noundef nonnull @.str.14) #8
  br label %56

22:                                               ; preds = %17
  %23 = getelementptr i8, ptr %1, i64 8
  %24 = load ptr, ptr %23, align 8, !tbaa !10
  call void @llvm.lifetime.start.p0(i64 8, ptr nonnull %4) #8
  store ptr null, ptr %4, align 8, !tbaa !10
  %char0.i = load i8, ptr %15, align 1
  %.not.i = icmp eq i8 %char0.i, 0
  br i1 %.not.i, label %25, label %28

25:                                               ; preds = %22
  %26 = call ptr @PyModule_GetState(ptr noundef %0) #8
  %27 = load ptr, ptr %26, align 8, !tbaa !4
  call void @PyErr_SetString(ptr noundef %27, ptr noundef nonnull @.str.100) #8
  br label %_locale_bindtextdomain_impl.exit

28:                                               ; preds = %22
  %.not13.i = icmp eq ptr %24, @_Py_NoneStruct
  br i1 %.not13.i, label %34, label %29

29:                                               ; preds = %28
  %30 = call i32 @PyUnicode_FSConverter(ptr noundef %24, ptr noundef nonnull %4) #8
  %.not14.i = icmp eq i32 %30, 0
  br i1 %.not14.i, label %_locale_bindtextdomain_impl.exit, label %31

31:                                               ; preds = %29
  %32 = load ptr, ptr %4, align 8, !tbaa !10
  %33 = call ptr @PyBytes_AsString(ptr noundef %32) #8
  br label %34

34:                                               ; preds = %31, %28
  %.010.i = phi ptr [ %33, %31 ], [ null, %28 ]
  %35 = call ptr @bindtextdomain(ptr noundef nonnull %15, ptr noundef %.010.i) #8
  %36 = icmp eq ptr %35, null
  br i1 %36, label %37, label %47

37:                                               ; preds = %34
  %38 = load ptr, ptr @PyExc_OSError, align 8, !tbaa !10
  %39 = call ptr @PyErr_SetFromErrno(ptr noundef %38) #8
  %40 = load ptr, ptr %4, align 8, !tbaa !10
  %.not.i.i = icmp eq ptr %40, null
  br i1 %.not.i.i, label %_locale_bindtextdomain_impl.exit, label %41

41:                                               ; preds = %37
  %42 = load i32, ptr %40, align 8, !tbaa !11
  %.not.i.i.i = icmp sgt i32 %42, -1
  br i1 %.not.i.i.i, label %43, label %_locale_bindtextdomain_impl.exit

43:                                               ; preds = %41
  %44 = add nsw i32 %42, -1
  store i32 %44, ptr %40, align 8, !tbaa !11
  %45 = icmp eq i32 %44, 0
  br i1 %45, label %46, label %_locale_bindtextdomain_impl.exit

46:                                               ; preds = %43
  call void @_Py_Dealloc(ptr noundef nonnull %40) #8
  br label %_locale_bindtextdomain_impl.exit

47:                                               ; preds = %34
  %48 = call ptr @PyUnicode_DecodeLocale(ptr noundef nonnull %35, ptr noundef null) #8
  %49 = load ptr, ptr %4, align 8, !tbaa !10
  %.not.i15.i = icmp eq ptr %49, null
  br i1 %.not.i15.i, label %_locale_bindtextdomain_impl.exit, label %50

50:                                               ; preds = %47
  %51 = load i32, ptr %49, align 8, !tbaa !11
  %.not.i.i16.i = icmp sgt i32 %51, -1
  br i1 %.not.i.i16.i, label %52, label %_locale_bindtextdomain_impl.exit

52:                                               ; preds = %50
  %53 = add nsw i32 %51, -1
  store i32 %53, ptr %49, align 8, !tbaa !11
  %54 = icmp eq i32 %53, 0
  br i1 %54, label %55, label %_locale_bindtextdomain_impl.exit

55:                                               ; preds = %52
  call void @_Py_Dealloc(ptr noundef nonnull %49) #8
  br label %_locale_bindtextdomain_impl.exit

_locale_bindtextdomain_impl.exit:                 ; preds = %25, %29, %37, %41, %43, %46, %47, %50, %52, %55
  %.0.i = phi ptr [ null, %25 ], [ null, %29 ], [ null, %37 ], [ null, %41 ], [ null, %43 ], [ null, %46 ], [ %48, %47 ], [ %48, %50 ], [ %48, %52 ], [ %48, %55 ]
  call void @llvm.lifetime.end.p0(i64 8, ptr nonnull %4) #8
  br label %56

56:                                               ; preds = %14, %6, %_locale_bindtextdomain_impl.exit, %20, %13
  %.0 = phi ptr [ null, %14 ], [ null, %20 ], [ %.0.i, %_locale_bindtextdomain_impl.exit ], [ null, %13 ], [ null, %6 ]
  ret ptr %.0
}